target datalayout = "e-m:e-p270:32:32-p271:32:32-p272:64:64-i64:64-i128:128-f80:128-n8:16:32:64-S128"
target triple = "x86_64-pc-linux-gnu"

%struct.HeapTupleData = type { i32, %struct.ItemPointerData, i32, ptr }
%struct.ItemPointerData = type { %struct.BlockIdData, i16 }
%struct.BlockIdData = type { i16, i16 }
%struct.HeapTupleHeaderData = type { %union.anon, %struct.ItemPointerData, i16, i16, i8, [0 x i8] }
%union.anon = type { %struct.HeapTupleFields }
%struct.HeapTupleFields = type { i32, i32, %union.anon.0 }
%union.anon.0 = type { i32 }
%struct.__va_list_tag = type { i32, i32, ptr, ptr }
%struct.FormData_pg_proc = type { i32, %struct.nameData, i32, i32, i32, float, float, i32, i32, i8, i8, i8, i8, i8, i8, i8, i16, i16, i32, %struct.oidvector }
%struct.nameData = type { [64 x i8] }
%struct.oidvector = type { i32, i32, i32, i32, i32, i32, [0 x i32] }

@.str.1 = private unnamed_addr constant [13 x i8] c"amvalidate.c\00", align 1
@.str.2 = private unnamed_addr constant [36 x i8] c"cache lookup failed for function %u\00", align 1
@__func__.check_amproc_signature = private unnamed_addr constant [23 x i8] c"check_amproc_signature\00", align 1

; Function Attrs: inlinehint nounwind uwtable
define internal ptr @GETSTRUCT(ptr noundef %0) #4 {
  %2 = alloca ptr, align 8
  store ptr %0, ptr %2, align 8
  %3 = load ptr, ptr %2, align 8
  %4 = getelementptr inbounds nuw %struct.HeapTupleData, ptr %3, i32 0, i32 3
  %5 = load ptr, ptr %4, align 8
  %6 = load ptr, ptr %2, align 8
  %7 = getelementptr inbounds nuw %struct.HeapTupleData, ptr %6, i32 0, i32 3
  %8 = load ptr, ptr %7, align 8
  %9 = getelementptr inbounds nuw %struct.HeapTupleHeaderData, ptr %8, i32 0, i32 4
  %10 = load i8, ptr %9, align 2
  %11 = zext i8 %10 to i32
  %12 = sext i32 %11 to i64
  %13 = getelementptr inbounds i8, ptr %5, i64 %12
  ret ptr %13
}

; Function Attrs: inlinehint nounwind uwtable
define internal i64 @ObjectIdGetDatum(i32 noundef %0) #4 {
  %2 = alloca i32, align 4
  store i32 %0, ptr %2, align 4
  %3 = load i32, ptr %2, align 4
  %4 = zext i32 %3 to i64
  ret i64 %4
}

; Function Attrs: nounwind uwtable
define dso_local zeroext i1 @check_amproc_signature(i32 noundef %0, i32 noundef %1, i1 noundef zeroext %2, i32 noundef %3, i32 noundef %4, ...) #0 {
  %6 = alloca i32, align 4
  %7 = alloca i32, align 4
  %8 = alloca i8, align 1
  %9 = alloca i32, align 4
  %10 = alloca i32, align 4
  %11 = alloca i8, align 1
  %12 = alloca ptr, align 8
  %13 = alloca ptr, align 8
  %14 = alloca [1 x %struct.__va_list_tag], align 16
  %15 = alloca i32, align 4
  %16 = alloca i32, align 4
  %17 = alloca i32, align 4
  store i32 %0, ptr %6, align 4
  store i32 %1, ptr %7, align 4
  %18 = zext i1 %2 to i8
  store i8 %18, ptr %8, align 1
  store i32 %3, ptr %9, align 4
  store i32 %4, ptr %10, align 4
  call void @llvm.lifetime.start.p0(i64 1, ptr %11) #6
  store i8 1, ptr %11, align 1
  call void @llvm.lifetime.start.p0(i64 8, ptr %12) #6
  call void @llvm.lifetime.start.p0(i64 8, ptr %13) #6
  call void @llvm.lifetime.start.p0(i64 24, ptr %14) #6
  call void @llvm.lifetime.start.p0(i64 4, ptr %15) #6
  %19 = load i32, ptr %6, align 4
  %20 = call i64 @ObjectIdGetDatum(i32 noundef %19)
  %21 = call ptr @SearchSysCache1(i32 noundef 47, i64 noundef %20)
  store ptr %21, ptr %12, align 8
  %22 = load ptr, ptr %12, align 8
  %23 = icmp ne ptr %22, null
  br i1 %23, label %36, label %24

24:                                               ; preds = %5
  br label %25

25:                                               ; preds = %24
  br i1 true, label %26, label %28

26:                                               ; preds = %25
  %27 = call zeroext i1 @errstart_cold(i32 noundef 21, ptr noundef null) #7
  br i1 %27, label %30, label %33

28:                                               ; preds = %25
  %29 = call zeroext i1 @errstart(i32 noundef 21, ptr noundef null)
  br i1 %29, label %30, label %33

30:                                               ; preds = %28, %26
  %31 = load i32, ptr %6, align 4
  %32 = call i32 (ptr, ...) @errmsg_internal(ptr noundef @.str.2, i32 noundef %31)
  call void @errfinish(ptr noundef @.str.1, i32 noundef 163, ptr noundef @__func__.check_amproc_signature)
  br label %33

33:                                               ; preds = %30, %28, %26
  unreachable

34:                                               ; No predecessors!
  br label %35

35:                                               ; preds = %34
  br label %36

36:                                               ; preds = %35, %5
  %37 = load ptr, ptr %12, align 8
  %38 = call ptr @GETSTRUCT(ptr noundef %37)
  store ptr %38, ptr %13, align 8
  %39 = load ptr, ptr %13, align 8
  %40 = getelementptr inbounds nuw %struct.FormData_pg_proc, ptr %39, i32 0, i32 18
  %41 = load i32, ptr %40, align 4
  %42 = load i32, ptr %7, align 4
  %43 = icmp ne i32 %41, %42
  br i1 %43, label %63, label %44

44:                                               ; preds = %36
  %45 = load ptr, ptr %13, align 8
  %46 = getelementptr inbounds nuw %struct.FormData_pg_proc, ptr %45, i32 0, i32 13
  %47 = load i8, ptr %46, align 4, !range !4, !noundef !5
  %48 = trunc i8 %47 to i1
  br i1 %48, label %63, label %49

49:                                               ; preds = %44
  %50 = load ptr, ptr %13, align 8
  %51 = getelementptr inbounds nuw %struct.FormData_pg_proc, ptr %50, i32 0, i32 16
  %52 = load i16, ptr %51, align 4
  %53 = sext i16 %52 to i32
  %54 = load i32, ptr %9, align 4
  %55 = icmp slt i32 %53, %54
  br i1 %55, label %63, label %56

56:                                               ; preds = %49
  %57 = load ptr, ptr %13, align 8
  %58 = getelementptr inbounds nuw %struct.FormData_pg_proc, ptr %57, i32 0, i32 16
  %59 = load i16, ptr %58, align 4
  %60 = sext i16 %59 to i32
  %61 = load i32, ptr %10, align 4
  %62 = icmp sgt i32 %60, %61
  br i1 %62, label %63, label %64

63:                                               ; preds = %56, %49, %44, %36
  store i8 0, ptr %11, align 1
  br label %64

64:                                               ; preds = %63, %56
  %65 = getelementptr inbounds [1 x %struct.__va_list_tag], ptr %14, i64 0, i64 0
  call void @llvm.va_start.p0(ptr %65)
  store i32 0, ptr %15, align 4
  br label %66

66:                                               ; preds = %122, %64
  %67 = load i32, ptr %15, align 4
  %68 = load i32, ptr %10, align 4
  %69 = icmp slt i32 %67, %68
  br i1 %69, label %70, label %125

70:                                               ; preds = %66
  call void @llvm.lifetime.start.p0(i64 4, ptr %16) #6
  %71 = getelementptr inbounds [1 x %struct.__va_list_tag], ptr %14, i64 0, i64 0
  %72 = getelementptr inbounds nuw %struct.__va_list_tag, ptr %71, i32 0, i32 0
  %73 = load i32, ptr %72, align 16
  %74 = icmp ule i32 %73, 40
  br i1 %74, label %75, label %80

75:                                               ; preds = %70
  %76 = getelementptr inbounds nuw %struct.__va_list_tag, ptr %71, i32 0, i32 3
  %77 = load ptr, ptr %76, align 16
  %78 = getelementptr i8, ptr %77, i32 %73
  %79 = add i32 %73, 8
  store i32 %79, ptr %72, align 16
  br label %84

80:                                               ; preds = %70
  %81 = getelementptr inbounds nuw %struct.__va_list_tag, ptr %71, i32 0, i32 2
  %82 = load ptr, ptr %81, align 8
  %83 = getelementptr i8, ptr %82, i32 8
  store ptr %83, ptr %81, align 8
  br label %84

84:                                               ; preds = %80, %75
  %85 = phi ptr [ %78, %75 ], [ %82, %80 ]
  %86 = load i32, ptr %85, align 4
  store i32 %86, ptr %16, align 4
  %87 = load i32, ptr %15, align 4
  %88 = load ptr, ptr %13, align 8
  %89 = getelementptr inbounds nuw %struct.FormData_pg_proc, ptr %88, i32 0, i32 16
  %90 = load i16, ptr %89, align 4
  %91 = sext i16 %90 to i32
  %92 = icmp sge i32 %87, %91
  br i1 %92, label %93, label %94

93:                                               ; preds = %84
  store i32 6, ptr %17, align 4
  br label %119

94:                                               ; preds = %84
  %95 = load i8, ptr %8, align 1, !range !4, !noundef !5
  %96 = trunc i8 %95 to i1
  br i1 %96, label %97, label %107

97:                                               ; preds = %94
  %98 = load i32, ptr %16, align 4
  %99 = load ptr, ptr %13, align 8
  %100 = getelementptr inbounds nuw %struct.FormData_pg_proc, ptr %99, i32 0, i32 19
  %101 = getelementptr inbounds nuw %struct.oidvector, ptr %100, i32 0, i32 6
  %102 = load i32, ptr %15, align 4
  %103 = sext i32 %102 to i64
  %104 = getelementptr inbounds [0 x i32], ptr %101, i64 0, i64 %103
  %105 = load i32, ptr %104, align 4
  %106 = icmp ne i32 %98, %105
  br i1 %106, label %117, label %118

107:                                              ; preds = %94
  %108 = load i32, ptr %16, align 4
  %109 = load ptr, ptr %13, align 8
  %110 = getelementptr inbounds nuw %struct.FormData_pg_proc, ptr %109, i32 0, i32 19
  %111 = getelementptr inbounds nuw %struct.oidvector, ptr %110, i32 0, i32 6
  %112 = load i32, ptr %15, align 4
  %113 = sext i32 %112 to i64
  %114 = getelementptr inbounds [0 x i32], ptr %111, i64 0, i64 %113
  %115 = load i32, ptr %114, align 4
  %116 = call zeroext i1 @IsBinaryCoercible(i32 noundef %108, i32 noundef %115)
  br i1 %116, label %118, label %117

117:                                              ; preds = %107, %97
  store i8 0, ptr %11, align 1
  br label %118

118:                                              ; preds = %117, %107, %97
  store i32 0, ptr %17, align 4
  br label %119

119:                                              ; preds = %118, %93
  call void @llvm.lifetime.end.p0(i64 4, ptr %16) #6
  %120 = load i32, ptr %17, align 4
  switch i32 %120, label %130 [
    i32 0, label %121
    i32 6, label %122
  ]

121:                                              ; preds = %119
  br label %122

122:                                              ; preds = %121, %119
  %123 = load i32, ptr %15, align 4
  %124 = add i32 %123, 1
  store i32 %124, ptr %15, align 4
  br label %66, !llvm.loop !8

125:                                              ; preds = %66
  %126 = getelementptr inbounds [1 x %struct.__va_list_tag], ptr %14, i64 0, i64 0
  call void @llvm.va_end.p0(ptr %126)
  %127 = load ptr, ptr %12, align 8
  call void @ReleaseSysCache(ptr noundef %127)
  %128 = load i8, ptr %11, align 1, !range !4, !noundef !5
  %129 = trunc i8 %128 to i1
  store i32 1, ptr %17, align 4
  call void @llvm.lifetime.end.p0(i64 4, ptr %15) #6
  call void @llvm.lifetime.end.p0(i64 24, ptr %14) #6
  call void @llvm.lifetime.end.p0(i64 8, ptr %13) #6
  call void @llvm.lifetime.end.p0(i64 8, ptr %12) #6
  call void @llvm.lifetime.end.p0(i64 1, ptr %11) #6
  ret i1 %129

130:                                              ; preds = %119
  unreachable
}