; Function Attrs: nounwind uwtable
define dso_local zeroext i1 @check_amproc_signature(i32 noundef %0, i32 noundef %1, i1 noundef zeroext %2, i32 noundef %3, i32 noundef %4, ...) local_unnamed_addr #0 {
  %6 = alloca [1 x %struct.__va_list_tag], align 16
  call void @llvm.lifetime.start.p0(i64 24, ptr nonnull %6) #8
  %7 = zext i32 %0 to i64
  %8 = tail call ptr @SearchSysCache1(i32 noundef 47, i64 noundef %7) #8
  %.not = icmp eq ptr %8, null
  br i1 %.not, label %9, label %12

9:                                                ; preds = %5
  %10 = tail call zeroext i1 @errstart_cold(i32 noundef 21, ptr noundef null) #7
  tail call void @llvm.assume(i1 %10)
  %11 = tail call i32 (ptr, ...) @errmsg_internal(ptr noundef nonnull @.str.2, i32 noundef %0) #8
  tail call void @errfinish(ptr noundef nonnull @.str.1, i32 noundef 163, ptr noundef nonnull @__func__.check_amproc_signature) #8
  unreachable

12:                                               ; preds = %5
  %13 = getelementptr i8, ptr %8, i64 16
  %.val = load ptr, ptr %13, align 8
  %14 = getelementptr inbounds nuw i8, ptr %.val, i64 22
  %15 = load i8, ptr %14, align 2
  %16 = zext i8 %15 to i64
  %17 = getelementptr inbounds nuw i8, ptr %.val, i64 %16
  %18 = getelementptr inbounds nuw i8, ptr %17, i64 108
  %19 = load i32, ptr %18, align 4
  %.not28 = icmp eq i32 %19, %1
  br i1 %.not28, label %20, label %30

20:                                               ; preds = %12
  %21 = getelementptr inbounds nuw i8, ptr %17, i64 100
  %22 = load i8, ptr %21, align 4, !range !4, !noundef !5
  %23 = trunc nuw i8 %22 to i1
  br i1 %23, label %30, label %24

24:                                               ; preds = %20
  %25 = getelementptr inbounds nuw i8, ptr %17, i64 104
  %26 = load i16, ptr %25, align 4
  %27 = sext i16 %26 to i32
  %28 = icmp sgt i32 %3, %27
  %29 = icmp slt i32 %4, %27
  %or.cond = or i1 %28, %29
  br i1 %or.cond, label %30, label %31

30:                                               ; preds = %24, %20, %12
  br label %31

31:                                               ; preds = %24, %30
  %.0 = phi i1 [ false, %30 ], [ true, %24 ]
  call void @llvm.va_start.p0(ptr nonnull %6)
  %32 = icmp sgt i32 %4, 0
  br i1 %32, label %.lr.ph, label %._crit_edge

.lr.ph:                                           ; preds = %31
  %33 = getelementptr inbounds nuw i8, ptr %6, i64 8
  %34 = getelementptr inbounds nuw i8, ptr %6, i64 16
  %35 = getelementptr inbounds nuw i8, ptr %17, i64 104
  %36 = getelementptr inbounds nuw i8, ptr %17, i64 136
  br i1 %2, label %.lr.ph.split.us, label %.lr.ph.split.preheader

.lr.ph.split.preheader:                           ; preds = %.lr.ph
  %wide.trip.count = zext nneg i32 %4 to i64
  br label %.lr.ph.split

.lr.ph.split.us:                                  ; preds = %.lr.ph
  %37 = load ptr, ptr %34, align 16
  %38 = load i32, ptr %6, align 16
  %39 = icmp ult i32 %38, 41
  %wide.trip.count45 = zext nneg i32 %4 to i64
  br i1 %39, label %.lr.ph.split.us.split, label %.lr.ph.split.us.split.us.preheader

.lr.ph.split.us.split.us.preheader:               ; preds = %.lr.ph.split.us
  %.pre = load ptr, ptr %33, align 8
  %.pre47 = load i16, ptr %35, align 4
  %40 = sext i16 %.pre47 to i64
  br label %.lr.ph.split.us.split.us

.lr.ph.split.us.split.us:                         ; preds = %.lr.ph.split.us.split.us.preheader, %47
  %41 = phi ptr [ %.pre, %.lr.ph.split.us.split.us.preheader ], [ %42, %47 ]
  %indvars.iv39 = phi i64 [ 0, %.lr.ph.split.us.split.us.preheader ], [ %indvars.iv.next40, %47 ]
  %.133.us.us = phi i1 [ %.0, %.lr.ph.split.us.split.us.preheader ], [ %.2.us.us, %47 ]
  %42 = getelementptr i8, ptr %41, i64 8
  store ptr %42, ptr %33, align 8
  %.not29.us.us = icmp slt i64 %indvars.iv39, %40
  br i1 %.not29.us.us, label %43, label %47

43:                                               ; preds = %.lr.ph.split.us.split.us
  %44 = load i32, ptr %41, align 4
  %45 = getelementptr inbounds nuw [0 x i32], ptr %36, i64 0, i64 %indvars.iv39
  %46 = load i32, ptr %45, align 4
  %.not30.us.us = icmp eq i32 %44, %46
  %spec.select = select i1 %.not30.us.us, i1 %.133.us.us, i1 false
  br label %47

47:                                               ; preds = %43, %.lr.ph.split.us.split.us
  %.2.us.us = phi i1 [ %.133.us.us, %.lr.ph.split.us.split.us ], [ %spec.select, %43 ]
  %indvars.iv.next40 = add nuw nsw i64 %indvars.iv39, 1
  %exitcond42.not = icmp eq i64 %indvars.iv.next40, %wide.trip.count45
  br i1 %exitcond42.not, label %._crit_edge, label %.lr.ph.split.us.split.us, !llvm.loop !8

.lr.ph.split.us.split:                            ; preds = %.lr.ph.split.us, %66
  %48 = phi i32 [ %58, %66 ], [ %38, %.lr.ph.split.us ]
  %indvars.iv43 = phi i64 [ %indvars.iv.next44, %66 ], [ 0, %.lr.ph.split.us ]
  %.133.us = phi i1 [ %.2.us, %66 ], [ %.0, %.lr.ph.split.us ]
  %49 = icmp ult i32 %48, 41
  br i1 %49, label %53, label %50

50:                                               ; preds = %.lr.ph.split.us.split
  %51 = load ptr, ptr %33, align 8
  %52 = getelementptr i8, ptr %51, i64 8
  store ptr %52, ptr %33, align 8
  br label %57

53:                                               ; preds = %.lr.ph.split.us.split
  %54 = zext nneg i32 %48 to i64
  %55 = getelementptr i8, ptr %37, i64 %54
  %56 = add nuw nsw i32 %48, 8
  store i32 %56, ptr %6, align 16
  br label %57

57:                                               ; preds = %53, %50
  %58 = phi i32 [ %56, %53 ], [ %48, %50 ]
  %59 = phi ptr [ %55, %53 ], [ %51, %50 ]
  %60 = load i16, ptr %35, align 4
  %61 = sext i16 %60 to i64
  %.not29.us = icmp slt i64 %indvars.iv43, %61
  br i1 %.not29.us, label %62, label %66

62:                                               ; preds = %57
  %63 = load i32, ptr %59, align 4
  %64 = getelementptr inbounds nuw [0 x i32], ptr %36, i64 0, i64 %indvars.iv43
  %65 = load i32, ptr %64, align 4
  %.not30.us = icmp eq i32 %63, %65
  %spec.select35 = select i1 %.not30.us, i1 %.133.us, i1 false
  br label %66

66:                                               ; preds = %62, %57
  %.2.us = phi i1 [ %.133.us, %57 ], [ %spec.select35, %62 ]
  %indvars.iv.next44 = add nuw nsw i64 %indvars.iv43, 1
  %exitcond46.not = icmp eq i64 %indvars.iv.next44, %wide.trip.count45
  br i1 %exitcond46.not, label %._crit_edge, label %.lr.ph.split.us.split, !llvm.loop !9

.lr.ph.split:                                     ; preds = %.lr.ph.split.preheader, %86
  %indvars.iv = phi i64 [ 0, %.lr.ph.split.preheader ], [ %indvars.iv.next, %86 ]
  %.133 = phi i1 [ %.0, %.lr.ph.split.preheader ], [ %.2, %86 ]
  %67 = load i32, ptr %6, align 16
  %68 = icmp ult i32 %67, 41
  br i1 %68, label %69, label %74

69:                                               ; preds = %.lr.ph.split
  %70 = load ptr, ptr %34, align 16
  %71 = zext nneg i32 %67 to i64
  %72 = getelementptr i8, ptr %70, i64 %71
  %73 = add nuw nsw i32 %67, 8
  store i32 %73, ptr %6, align 16
  br label %77

74:                                               ; preds = %.lr.ph.split
  %75 = load ptr, ptr %33, align 8
  %76 = getelementptr i8, ptr %75, i64 8
  store ptr %76, ptr %33, align 8
  br label %77

77:                                               ; preds = %74, %69
  %78 = phi ptr [ %72, %69 ], [ %75, %74 ]
  %79 = load i16, ptr %35, align 4
  %80 = sext i16 %79 to i64
  %.not29 = icmp slt i64 %indvars.iv, %80
  br i1 %.not29, label %81, label %86

81:                                               ; preds = %77
  %82 = load i32, ptr %78, align 4
  %83 = getelementptr inbounds nuw [0 x i32], ptr %36, i64 0, i64 %indvars.iv
  %84 = load i32, ptr %83, align 4
  %85 = call zeroext i1 @IsBinaryCoercible(i32 noundef %82, i32 noundef %84) #8
  %spec.select36 = select i1 %85, i1 %.133, i1 false
  br label %86

86:                                               ; preds = %81, %77
  %.2 = phi i1 [ %.133, %77 ], [ %spec.select36, %81 ]
  %indvars.iv.next = add nuw nsw i64 %indvars.iv, 1
  %exitcond.not = icmp eq i64 %indvars.iv.next, %wide.trip.count
  br i1 %exitcond.not, label %._crit_edge, label %.lr.ph.split, !llvm.loop !8

._crit_edge:                                      ; preds = %86, %47, %66, %31
  %.1.lcssa = phi i1 [ %.0, %31 ], [ %.2.us, %66 ], [ %.2.us.us, %47 ], [ %.2, %86 ]
  call void @llvm.va_end.p0(ptr nonnull %6)
  call void @ReleaseSysCache(ptr noundef nonnull %8) #8
  call void @llvm.lifetime.end.p0(i64 24, ptr nonnull %6) #8
  ret i1 %.1.lcssa
}